; Function Attrs: mustprogress nofree norecurse nosync nounwind willreturn memory(argmem: readwrite) uwtable
define dso_local void @_ZN4Json5Value8CZStringC2EOS1_(ptr nocapture noundef nonnull writeonly align 8 dereferenceable(12) %0, ptr nocapture noundef nonnull align 8 dereferenceable(12) %1) unnamed_addr #5 align 2 {
  %3 = load ptr, ptr %1, align 8
  store ptr %3, ptr %0, align 8
  %4 = getelementptr inbounds i8, ptr %0, i64 8
  %5 = getelementptr inbounds i8, ptr %1, i64 8
  %6 = load i32, ptr %5, align 8
  store i32 %6, ptr %4, align 8
  store ptr null, ptr %1, align 8
  ret void
}